(lp1
(dp2
S'y'
I20
sS'x'
I350
sS'height'
p3
I300
sS'name'
p4
S'Form'
p5
sS'width'
p6
I300
sa(dp7
a(dp8
S'hasmenu'
p9
S'yes'
p10
sS'hasstatusbar'
p11
S'no'
p12
sS'guitype'
p13
S'main'
p14
sS'hideOkBtn'
p15
S'no'
p16
sS'maxCompID'
p17
I0
sS'hasstddialcolor'
p18
S'no'
p19
sS'hasstddialmess'
p20
S'no'
p21
sS'resizable'
p22
S'no'
p23
sS'menu'
p24
VFile\u000a  New\u000a  Open\u000a  Save\u000aOptiuni\u000a  Alt\u000aHelp
p25
sS'hasstdalarm'
p26
S'no'
p27
sS'hasstddialfile'
p28
S'no'
p29
sa.(lp1
.