(lp1
(dp2
S'ModulePrevious'
p3
S'browser'
p4
sS'ModuleCurrent'
p5
g4
sS'Version'
p6
I1
sS'Geometry'
p7
S'1615x1026+65+24'
p8
sS'ProjectName'
p9
g4
sS'ImportTypes'
p10
(lp11
(S'Pmw'
p12
S'import'
p13
tp14
a(S'Tkinter'
p15
S'from'
p16
tp17
asS'EditorWidths'
p18
((lp19
I131
aI131
a(lp20
I131
aI131
a(lp21
I130
aI130
atp22
sS'ID'
p23
S'Rapyd Project'
p24
sS'ParkingLot'
p25
(dp26
S'SelectedWidreq'
p27
NsS'Widreqs'
p28
(lp29
ssa(dp30
S'PreviousForm'
p31
S'-Main-'
p32
sS'OnTab'
p33
I1
sS'-Main-'
p34
(dp35
S'Cursor'
p36
S'34.0'
p37
sS'Text'
p38
(lp39
S''
aS'#!/usr/bin/python\n#coding=utf8\n\n'
p40
aS'import rpErrorHandler\nfrom Tkinter import *\n'
p41
aS'\ntry:\n    #--------------------------------------------------------------------------#\n    # User code should go after this comment so it is inside the "try".        #\n    #     This allows rpErrorHandler to gain control on an error so it         #\n    #     can properly display a Rapyd-aware error message.                    #\n    #--------------------------------------------------------------------------#\n\n    #Adjust sys.path so we can find other modules of this project\n    import sys\n    if \'.\' not in sys.path:\n        sys.path.append(\'.\')\n    #Put lines to import other modules of this project here\n    \n    if __name__ == \'__main__\':\n'
p42
aS"        Root = Tk()\n        import Tkinter\n        Tkinter.CallWrapper = rpErrorHandler.CallWrapper\n        del Tkinter\n        App = browser(Root)\n        App.pack(expand='yes',fill='both')\n"
p43
aS"        Root.geometry('640x480+10+10')\n        Root.title('browser')\n        Root.mainloop()\n    #--------------------------------------------------------------------------#\n    # User code should go above this comment.                                  #\n    #--------------------------------------------------------------------------#\nexcept:\n    rpErrorHandler.RunError()"
p44
asg6
I0
sS'Sha'
p45
I5612415
ssS'Forms'
p46
(lp47
(dp48
S'Requested'
p49
S'Gui'
p50
sS'Name'
p51
S'browser'
p52
sg27
g52
sS'Type'
p53
S'Tkinter.Frame'
p54
sS'Lines'
p55
(lp56
sg38
(dp57
g36
S'26.0'
p58
sg38
(lp59
S"#------------------------------------------------------------------------------#\n#                                                                              #\n#                                   browser                                    #\n#                                                                              #\n#------------------------------------------------------------------------------#\nclass browser(Frame):\n    def __init__(self,Master=None,*pos,**kw):\n        kw['background'] = '#59d9d9'\n        kw['borderwidth'] = '1'\n"
p60
aS'        #\n        #Your code here\n        #\n'
p61
aS'\n        apply(Frame.__init__,(self,Master),kw)\n\n'
p62
aS'        #\n        #Your code here\n        #\n'
p63
aS'    #\n    #Start of event handler methods\n    #\n'
p64
aS'\n'
aS'    #\n    #Start of non-Rapyd user code\n    #\n'
p65
aS''
asg6
I0
sg45
I10400895
ssg28
(lp66
(dp67
S'ModuleName'
p68
S'Tkinter'
p69
sg51
g52
sS'WidgetName'
p70
S'Frame'
p71
sS'PackOptions'
p72
(lp73
sg23
(I0
tp74
sS'XY'
p75
(I0
I0
tp76
sS'Bindings'
p77
(lp78
sS'Options'
p79
(lp80
(dp81
g51
S'borderwidth'
p82
sS'Value'
p83
S'n:1'
p84
sS'Extra'
p85
Nsa(dp86
g51
S'background'
p87
sg83
S'c:#59d9d9'
p88
sg85
NsasasS'BaseClass'
p89
g54
sg33
I1
sasS'VisibleForm'
p90
g52
sS'SelectedForm'
p91
g52
sg51
g4
sa.